Certificate:
    Data:
        Version: 3 (0x2)
        Serial Number: 4 (0x4)
    Signature Algorithm: sha1WithRSAEncryption
        Issuer: C=RU, ST=RB, L=UFA, O=MBUCSDB, OU=changeme, CN=changeme/name=changeme/emailAddress=mail@host.domain
        Validity
            Not Before: Jul 16 13:28:37 2012 GMT
            Not After : Jul 14 13:28:37 2022 GMT
        Subject: C=RU, ST=RB, L=UFA, O=MBUCSDB, OU=changeme, CN=datateh/name=changeme/emailAddress=mail@host.domain
        Subject Public Key Info:
            Public Key Algorithm: rsaEncryption
                Public-Key: (1024 bit)
                Modulus:
                    00:c9:8d:8e:93:25:7e:3a:54:ea:33:d4:8a:cd:c4:
                    70:31:5b:8f:3a:a8:f1:55:72:f0:d7:24:b8:d2:2e:
                    e2:65:88:3e:a4:60:90:94:8b:e3:98:20:83:b6:31:
                    2a:cc:40:8d:fc:c7:25:cb:bb:af:fb:18:b9:dd:44:
                    eb:04:a6:ea:fa:1b:3a:d8:91:dd:04:f6:d2:1d:bc:
                    94:97:db:72:cd:7f:a7:c8:ae:02:15:47:27:c5:31:
                    e6:85:0f:f1:62:1f:0e:f1:79:0d:30:66:bf:3b:06:
                    62:dc:bb:52:1e:aa:11:3b:ce:b8:ee:cf:cf:68:b4:
                    ba:11:39:27:68:ff:ff:24:07
                Exponent: 65537 (0x10001)
        X509v3 extensions:
            X509v3 Basic Constraints: 
                CA:FALSE
            Netscape Comment: 
                Easy-RSA Generated Certificate
            X509v3 Subject Key Identifier: 
                10:DE:85:FB:61:BC:BC:0E:87:A4:1D:F9:D3:E2:76:11:8B:E7:40:28
            X509v3 Authority Key Identifier: 
                keyid:60:3D:5D:04:61:CE:CD:7F:13:E5:C3:9C:56:B2:D7:A1:3C:5F:AA:19
                DirName:/C=RU/ST=RB/L=UFA/O=MBUCSDB/OU=changeme/CN=changeme/name=changeme/emailAddress=mail@host.domain
                serial:D5:9E:2F:C4:5A:7E:24:A8

            X509v3 Extended Key Usage: 
                TLS Web Client Authentication
            X509v3 Key Usage: 
                Digital Signature
    Signature Algorithm: sha1WithRSAEncryption
         3e:f5:fa:46:ce:ee:9d:58:a8:04:1d:06:a5:98:ce:a1:c5:4e:
         f6:9a:5c:10:95:93:92:ab:dc:0f:1a:27:a1:af:e6:f6:92:3e:
         3b:0b:87:1f:a6:78:c0:91:53:2f:cc:74:03:2e:08:2c:50:21:
         c9:0d:10:ec:89:8b:1e:29:8f:2f:c8:60:46:08:c7:1d:33:6d:
         62:b3:e3:7f:dd:5e:af:4a:e1:e6:c2:cf:fa:42:1f:55:98:ba:
         c7:c2:64:aa:b6:c8:ac:58:93:f7:93:2a:fb:e1:54:80:e5:0a:
         3c:a7:7c:46:39:7b:03:9c:a2:58:6c:16:7d:57:77:78:7b:f4:
         a3:75
-----BEGIN CERTIFICATE-----
MIID7DCCA1WgAwIBAgIBBDANBgkqhkiG9w0BAQUFADCBlDELMAkGA1UEBhMCUlUx
CzAJBgNVBAgTAlJCMQwwCgYDVQQHEwNVRkExEDAOBgNVBAoTB01CVUNTREIxETAP
BgNVBAsTCGNoYW5nZW1lMREwDwYDVQQDEwhjaGFuZ2VtZTERMA8GA1UEKRMIY2hh
bmdlbWUxHzAdBgkqhkiG9w0BCQEWEG1haWxAaG9zdC5kb21haW4wHhcNMTIwNzE2
MTMyODM3WhcNMjIwNzE0MTMyODM3WjCBkzELMAkGA1UEBhMCUlUxCzAJBgNVBAgT
AlJCMQwwCgYDVQQHEwNVRkExEDAOBgNVBAoTB01CVUNTREIxETAPBgNVBAsTCGNo
YW5nZW1lMRAwDgYDVQQDEwdkYXRhdGVoMREwDwYDVQQpEwhjaGFuZ2VtZTEfMB0G
CSqGSIb3DQEJARYQbWFpbEBob3N0LmRvbWFpbjCBnzANBgkqhkiG9w0BAQEFAAOB
jQAwgYkCgYEAyY2OkyV+OlTqM9SKzcRwMVuPOqjxVXLw1yS40i7iZYg+pGCQlIvj
mCCDtjEqzECN/Mcly7uv+xi53UTrBKbq+hs62JHdBPbSHbyUl9tyzX+nyK4CFUcn
xTHmhQ/xYh8O8XkNMGa/OwZi3LtSHqoRO8647s/PaLS6ETknaP//JAcCAwEAAaOC
AUswggFHMAkGA1UdEwQCMAAwLQYJYIZIAYb4QgENBCAWHkVhc3ktUlNBIEdlbmVy
YXRlZCBDZXJ0aWZpY2F0ZTAdBgNVHQ4EFgQUEN6F+2G8vA6HpB350+J2EYvnQCgw
gckGA1UdIwSBwTCBvoAUYD1dBGHOzX8T5cOcVrLXoTxfqhmhgZqkgZcwgZQxCzAJ
BgNVBAYTAlJVMQswCQYDVQQIEwJSQjEMMAoGA1UEBxMDVUZBMRAwDgYDVQQKEwdN
QlVDU0RCMREwDwYDVQQLEwhjaGFuZ2VtZTERMA8GA1UEAxMIY2hhbmdlbWUxETAP
BgNVBCkTCGNoYW5nZW1lMR8wHQYJKoZIhvcNAQkBFhBtYWlsQGhvc3QuZG9tYWlu
ggkA1Z4vxFp+JKgwEwYDVR0lBAwwCgYIKwYBBQUHAwIwCwYDVR0PBAQDAgeAMA0G
CSqGSIb3DQEBBQUAA4GBAD71+kbO7p1YqAQdBqWYzqHFTvaaXBCVk5Kr3A8aJ6Gv
5vaSPjsLhx+meMCRUy/MdAMuCCxQIckNEOyJix4pjy/IYEYIxx0zbWKz43/dXq9K
4ebCz/pCH1WYusfCZKq2yKxYk/eTKvvhVIDlCjynfEY5ewOcolhsFn1Xd3h79KN1
-----END CERTIFICATE-----
