Certificate:
    Data:
        Version: 3 (0x2)
        Serial Number: 3 (0x3)
    Signature Algorithm: sha1WithRSAEncryption
        Issuer: C=RU, ST=RB, L=UFA, O=MBUCSDB, OU=changeme, CN=changeme/name=changeme/emailAddress=mail@host.domain
        Validity
            Not Before: Jul 16 13:28:05 2012 GMT
            Not After : Jul 14 13:28:05 2022 GMT
        Subject: C=RU, ST=RB, L=UFA, O=MBUCSDB, OU=changeme, CN=home2/name=changeme/emailAddress=mail@host.domain
        Subject Public Key Info:
            Public Key Algorithm: rsaEncryption
                Public-Key: (1024 bit)
                Modulus:
                    00:b9:9b:0b:97:fb:a2:b1:7b:d2:bb:2d:14:89:af:
                    db:82:1a:25:cd:67:98:ff:ab:59:4c:4b:f8:af:d4:
                    70:66:9d:0d:bb:e3:24:98:15:1d:c1:14:3a:15:6d:
                    5e:17:05:d6:82:93:fd:6a:c3:74:4c:2f:3c:af:c6:
                    55:db:85:7d:a8:9e:a1:8b:0b:4e:e1:4a:7b:f1:5d:
                    04:63:93:7f:24:5f:be:86:f3:78:f7:da:e8:48:d5:
                    42:2e:08:ec:61:62:ec:57:92:ab:44:7c:de:3c:5f:
                    80:d6:ad:d4:62:5a:3b:57:de:df:85:c7:e9:3a:4b:
                    84:77:8c:c4:43:87:25:2f:97
                Exponent: 65537 (0x10001)
        X509v3 extensions:
            X509v3 Basic Constraints: 
                CA:FALSE
            Netscape Comment: 
                Easy-RSA Generated Certificate
            X509v3 Subject Key Identifier: 
                19:52:68:F4:36:5E:09:55:4E:4A:12:9F:27:5C:87:AA:27:CF:B5:17
            X509v3 Authority Key Identifier: 
                keyid:60:3D:5D:04:61:CE:CD:7F:13:E5:C3:9C:56:B2:D7:A1:3C:5F:AA:19
                DirName:/C=RU/ST=RB/L=UFA/O=MBUCSDB/OU=changeme/CN=changeme/name=changeme/emailAddress=mail@host.domain
                serial:D5:9E:2F:C4:5A:7E:24:A8

            X509v3 Extended Key Usage: 
                TLS Web Client Authentication
            X509v3 Key Usage: 
                Digital Signature
    Signature Algorithm: sha1WithRSAEncryption
         34:7b:1b:41:33:59:a1:84:13:b5:bb:cf:63:a6:7c:27:5c:51:
         86:cb:42:ba:46:58:dd:46:6f:ad:c6:2a:00:c3:12:ad:18:02:
         f2:bf:de:0a:d6:4a:b9:de:fd:18:fd:42:08:1d:3e:e6:62:58:
         a8:40:cd:b0:76:79:6e:75:a2:c9:58:75:20:e7:3b:b4:b3:1a:
         4e:6f:f6:79:18:20:94:5e:44:c2:27:4b:06:ec:2c:d3:32:38:
         36:7a:35:4a:db:9d:4b:5e:8d:f0:2b:c6:aa:1c:e5:b3:80:1c:
         e1:bc:f2:3d:fc:8d:7c:f5:6c:8e:81:c8:13:22:d4:5b:a7:a7:
         d3:e7
-----BEGIN CERTIFICATE-----
MIID6jCCA1OgAwIBAgIBAzANBgkqhkiG9w0BAQUFADCBlDELMAkGA1UEBhMCUlUx
CzAJBgNVBAgTAlJCMQwwCgYDVQQHEwNVRkExEDAOBgNVBAoTB01CVUNTREIxETAP
BgNVBAsTCGNoYW5nZW1lMREwDwYDVQQDEwhjaGFuZ2VtZTERMA8GA1UEKRMIY2hh
bmdlbWUxHzAdBgkqhkiG9w0BCQEWEG1haWxAaG9zdC5kb21haW4wHhcNMTIwNzE2
MTMyODA1WhcNMjIwNzE0MTMyODA1WjCBkTELMAkGA1UEBhMCUlUxCzAJBgNVBAgT
AlJCMQwwCgYDVQQHEwNVRkExEDAOBgNVBAoTB01CVUNTREIxETAPBgNVBAsTCGNo
YW5nZW1lMQ4wDAYDVQQDEwVob21lMjERMA8GA1UEKRMIY2hhbmdlbWUxHzAdBgkq
hkiG9w0BCQEWEG1haWxAaG9zdC5kb21haW4wgZ8wDQYJKoZIhvcNAQEBBQADgY0A
MIGJAoGBALmbC5f7orF70rstFImv24IaJc1nmP+rWUxL+K/UcGadDbvjJJgVHcEU
OhVtXhcF1oKT/WrDdEwvPK/GVduFfaieoYsLTuFKe/FdBGOTfyRfvobzePfa6EjV
Qi4I7GFi7FeSq0R83jxfgNat1GJaO1fe34XH6TpLhHeMxEOHJS+XAgMBAAGjggFL
MIIBRzAJBgNVHRMEAjAAMC0GCWCGSAGG+EIBDQQgFh5FYXN5LVJTQSBHZW5lcmF0
ZWQgQ2VydGlmaWNhdGUwHQYDVR0OBBYEFBlSaPQ2XglVTkoSnydch6onz7UXMIHJ
BgNVHSMEgcEwgb6AFGA9XQRhzs1/E+XDnFay16E8X6oZoYGapIGXMIGUMQswCQYD
VQQGEwJSVTELMAkGA1UECBMCUkIxDDAKBgNVBAcTA1VGQTEQMA4GA1UEChMHTUJV
Q1NEQjERMA8GA1UECxMIY2hhbmdlbWUxETAPBgNVBAMTCGNoYW5nZW1lMREwDwYD
VQQpEwhjaGFuZ2VtZTEfMB0GCSqGSIb3DQEJARYQbWFpbEBob3N0LmRvbWFpboIJ
ANWeL8RafiSoMBMGA1UdJQQMMAoGCCsGAQUFBwMCMAsGA1UdDwQEAwIHgDANBgkq
hkiG9w0BAQUFAAOBgQA0extBM1mhhBO1u89jpnwnXFGGy0K6RljdRm+txioAwxKt
GALyv94K1kq53v0Y/UIIHT7mYlioQM2wdnludaLJWHUg5zu0sxpOb/Z5GCCUXkTC
J0sG7CzTMjg2ejVK251LXo3wK8aqHOWzgBzhvPI9/I189WyOgcgTItRbp6fT5w==
-----END CERTIFICATE-----
